{
   <insert_a_suppression_name_here>
   Memcheck:Leak
   fun:malloc_zone_malloc
   fun:_ZN4objc8DenseMapIP11objc_objectmLb1ENS_12DenseMapInfoIS2_EENS3_ImEEE4initEj
   fun:arr_init
   fun:map_images_nolock
   fun:map_images
   fun:_ZN4dyldL18notifyBatchPartialE17dyld_image_statesbPFPKcS0_jPK15dyld_image_infoE
   fun:_ZN4dyld36registerImageStateBatchChangeHandlerE17dyld_image_statesPFPKcS0_jPK15dyld_image_infoE
   fun:dyld_register_image_state_change_handler
   fun:_objc_init
   fun:libSystem_initializer
   fun:_ZN16ImageLoaderMachO18doModInitFunctionsERKN11ImageLoader11LinkContextE
   fun:_ZN16ImageLoaderMachO16doInitializationERKN11ImageLoader11LinkContextE
}

{
   <insert_a_suppression_name_here>
   Memcheck:Leak
   fun:malloc_zone_malloc
   fun:NXCreateMapTableFromZone
   fun:_read_images
   fun:map_images_nolock
   fun:map_images
   fun:_ZN4dyldL18notifyBatchPartialE17dyld_image_statesbPFPKcS0_jPK15dyld_image_infoE
   fun:_ZN4dyld36registerImageStateBatchChangeHandlerE17dyld_image_statesPFPKcS0_jPK15dyld_image_infoE
   fun:dyld_register_image_state_change_handler
   fun:_objc_init
   fun:libSystem_initializer
   fun:_ZN16ImageLoaderMachO18doModInitFunctionsERKN11ImageLoader11LinkContextE
   fun:_ZN16ImageLoaderMachO16doInitializationERKN11ImageLoader11LinkContextE
}

{
   <insert_a_suppression_name_here>
   Memcheck:Leak
   fun:malloc_zone_malloc
   fun:_ZL12_NXMapRehashP11_NXMapTable
   fun:NXMapInsert
   fun:NXMapKeyCopyingInsert
   fun:_read_images
   fun:map_images_nolock
   fun:map_images
   fun:_ZN4dyldL18notifyBatchPartialE17dyld_image_statesbPFPKcS0_jPK15dyld_image_infoE
   fun:_ZN4dyld36registerImageStateBatchChangeHandlerE17dyld_image_statesPFPKcS0_jPK15dyld_image_infoE
   fun:dyld_register_image_state_change_handler
   fun:_objc_init
   fun:libSystem_initializer
}

{
   <insert_a_suppression_name_here>
   Memcheck:Leak
   fun:malloc_zone_malloc
   fun:NXCreateMapTableFromZone
   fun:_ZL15remappedClassesa
   fun:_ZL10remapClassP7class_t
   fun:_read_images
   fun:map_images_nolock
   fun:map_images
   fun:_ZN4dyldL18notifyBatchPartialE17dyld_image_statesbPFPKcS0_jPK15dyld_image_infoE
   fun:_ZN4dyld36registerImageStateBatchChangeHandlerE17dyld_image_statesPFPKcS0_jPK15dyld_image_infoE
   fun:dyld_register_image_state_change_handler
   fun:_objc_init
   fun:libSystem_initializer
}

{
   <insert_a_suppression_name_here>
   Memcheck:Leak
   fun:malloc_zone_malloc
   fun:NXCreateMapTableFromZone
   fun:_ZL18futureNamedClassesv
   fun:_read_images
   fun:map_images_nolock
   fun:map_images
   fun:_ZN4dyldL18notifyBatchPartialE17dyld_image_statesbPFPKcS0_jPK15dyld_image_infoE
   fun:_ZN4dyld36registerImageStateBatchChangeHandlerE17dyld_image_statesPFPKcS0_jPK15dyld_image_infoE
   fun:dyld_register_image_state_change_handler
   fun:_objc_init
   fun:libSystem_initializer
   fun:_ZN16ImageLoaderMachO18doModInitFunctionsERKN11ImageLoader11LinkContextE
}

{
   <insert_a_suppression_name_here>
   Memcheck:Leak
   fun:malloc_zone_malloc
   fun:_strdup_internal
   fun:NXMapKeyCopyingInsert
   fun:_read_images
   fun:map_images_nolock
   fun:map_images
   fun:_ZN4dyldL18notifyBatchPartialE17dyld_image_statesbPFPKcS0_jPK15dyld_image_infoE
   fun:_ZN4dyld36registerImageStateBatchChangeHandlerE17dyld_image_statesPFPKcS0_jPK15dyld_image_infoE
   fun:dyld_register_image_state_change_handler
   fun:_objc_init
   fun:libSystem_initializer
   fun:_ZN16ImageLoaderMachO18doModInitFunctionsERKN11ImageLoader11LinkContextE
}

{
   <insert_a_suppression_name_here>
   Memcheck:Leak
   fun:malloc_zone_malloc
   fun:NXCreateMapTableFromZone
   fun:_ZL20unattachedCategoriesv
   fun:_ZL12realizeClassP7class_t
   fun:_ZL12realizeClassP7class_t
   fun:_ZL12realizeClassP7class_t
   fun:_ZL12realizeClassP7class_t
   fun:_ZL12realizeClassP7class_t
   fun:_read_images
   fun:map_images_nolock
   fun:map_images
   fun:_ZN4dyldL18notifyBatchPartialE17dyld_image_statesbPFPKcS0_jPK15dyld_image_infoE
}

{
   <insert_a_suppression_name_here>
   Memcheck:Leak
   fun:malloc
   fun:_ZL29getPerThreadBufferFor_dlerrorj
   fun:dlopen
   fun:dlopen
   fun:map_images_nolock
   fun:map_images
   fun:_ZN4dyldL18notifyBatchPartialE17dyld_image_statesbPFPKcS0_jPK15dyld_image_infoE
   fun:_ZN4dyld36registerImageStateBatchChangeHandlerE17dyld_image_statesPFPKcS0_jPK15dyld_image_infoE
   fun:dyld_register_image_state_change_handler
   fun:_objc_init
   fun:libSystem_initializer
   fun:_ZN16ImageLoaderMachO18doModInitFunctionsERKN11ImageLoader11LinkContextE
}

{
   <insert_a_suppression_name_here>
   Memcheck:Leak
   fun:malloc_zone_calloc
   fun:map_images_nolock
   fun:map_images
   fun:_ZN4dyldL18notifyBatchPartialE17dyld_image_statesbPFPKcS0_jPK15dyld_image_infoE
   fun:_ZN4dyld36registerImageStateBatchChangeHandlerE17dyld_image_statesPFPKcS0_jPK15dyld_image_infoE
   fun:dyld_register_image_state_change_handler
   fun:_objc_init
   fun:libSystem_initializer
   fun:_ZN16ImageLoaderMachO18doModInitFunctionsERKN11ImageLoader11LinkContextE
   fun:_ZN16ImageLoaderMachO16doInitializationERKN11ImageLoader11LinkContextE
   fun:_ZN11ImageLoader23recursiveInitializationERKNS_11LinkContextEjRNS_21InitializerTimingListE
   fun:_ZN11ImageLoader23recursiveInitializationERKNS_11LinkContextEjRNS_21InitializerTimingListE
}

{
   <insert_a_suppression_name_here>
   Memcheck:Leak
   fun:malloc_zone_calloc
   fun:NXHashInsert
   fun:_NXHashRehashToCapacity
   fun:NXHashInsert
   fun:_ZL12realizeClassP7class_t
   fun:_ZL12realizeClassP7class_t
   fun:_read_images
   fun:map_images_nolock
   fun:map_images
   fun:_ZN4dyldL18notifyBatchPartialE17dyld_image_statesbPFPKcS0_jPK15dyld_image_infoE
   fun:_ZN4dyld36registerImageStateBatchChangeHandlerE17dyld_image_statesPFPKcS0_jPK15dyld_image_infoE
   fun:dyld_register_image_state_change_handler
}

{
   <insert_a_suppression_name_here>
   Memcheck:Leak
   fun:malloc_zone_calloc
   fun:NXHashInsert
   fun:_ZL12realizeClassP7class_t
   fun:_ZL12realizeClassP7class_t
   fun:_read_images
   fun:map_images_nolock
   fun:map_images
   fun:_ZN4dyldL18notifyBatchPartialE17dyld_image_statesbPFPKcS0_jPK15dyld_image_infoE
   fun:_ZN4dyld36registerImageStateBatchChangeHandlerE17dyld_image_statesPFPKcS0_jPK15dyld_image_infoE
   fun:dyld_register_image_state_change_handler
   fun:_objc_init
   fun:libSystem_initializer
}

{
   <insert_a_suppression_name_here>
   Memcheck:Leak
   fun:malloc_zone_calloc
   fun:NXHashInsert
   fun:_NXHashRehashToCapacity
   fun:NXHashInsert
   fun:_ZL12realizeClassP7class_t
   fun:_read_images
   fun:map_images_nolock
   fun:map_images
   fun:_ZN4dyldL18notifyBatchPartialE17dyld_image_statesbPFPKcS0_jPK15dyld_image_infoE
   fun:_ZN4dyld36registerImageStateBatchChangeHandlerE17dyld_image_statesPFPKcS0_jPK15dyld_image_infoE
   fun:dyld_register_image_state_change_handler
   fun:_objc_init
}

{
   <insert_a_suppression_name_here>
   Memcheck:Leak
   fun:malloc_zone_calloc
   fun:_objc_fetch_pthread_data
   fun:_ZL27_fetchInitializingClassLista
   fun:_class_initialize
   fun:_class_initialize
   fun:_class_initialize
   fun:_class_initialize
   fun:prepareForMethodLookup
   fun:lookUpMethod
   fun:objc_msgSend
   fun:_libxpc_initializer
   fun:libSystem_initializer
}


{
   <insert_a_suppression_name_here>
   Memcheck:Leak
   fun:malloc_zone_calloc
   fun:NXHashInsert
   fun:_ZL12realizeClassP7class_t
   fun:_read_images
   fun:map_images_nolock
   fun:map_images
   fun:_ZN4dyldL18notifyBatchPartialE17dyld_image_statesbPFPKcS0_jPK15dyld_image_infoE
   fun:_ZN4dyld36registerImageStateBatchChangeHandlerE17dyld_image_statesPFPKcS0_jPK15dyld_image_infoE
   fun:dyld_register_image_state_change_handler
   fun:_objc_init
   fun:libSystem_initializer
   fun:_ZN16ImageLoaderMachO18doModInitFunctionsERKN11ImageLoader11LinkContextE
}

{
   <insert_a_suppression_name_here>
   Memcheck:Leak
   fun:malloc_zone_malloc
   fun:recursive_mutex_init
   fun:_objc_init
   fun:libSystem_initializer
   fun:_ZN16ImageLoaderMachO18doModInitFunctionsERKN11ImageLoader11LinkContextE
   fun:_ZN16ImageLoaderMachO16doInitializationERKN11ImageLoader11LinkContextE
   fun:_ZN11ImageLoader23recursiveInitializationERKNS_11LinkContextEjRNS_21InitializerTimingListE
   fun:_ZN11ImageLoader23recursiveInitializationERKNS_11LinkContextEjRNS_21InitializerTimingListE
   fun:_ZN11ImageLoader15runInitializersERKNS_11LinkContextERNS_21InitializerTimingListE
   fun:_ZN4dyld24initializeMainExecutableEv
   fun:_ZN4dyld5_mainEPK12macho_headermiPPKcS5_S5_Pm
   fun:_ZN13dyldbootstrap5startEPK12macho_headeriPPKclS2_Pm
}

{
   <insert_a_suppression_name_here>
   Memcheck:Leak
   fun:malloc_zone_calloc
   fun:NXHashInsert
   fun:_NXHashRehashToCapacity
   fun:NXHashInsert
   fun:NXCreateHashTableFromZone
   fun:NXCreateHashTable
   fun:NXCreateMapTableFromZone
   fun:_read_images
   fun:map_images_nolock
   fun:map_images
   fun:_ZN4dyldL18notifyBatchPartialE17dyld_image_statesbPFPKcS0_jPK15dyld_image_infoE
   fun:_ZN4dyld36registerImageStateBatchChangeHandlerE17dyld_image_statesPFPKcS0_jPK15dyld_image_infoE
}

{
   <insert_a_suppression_name_here>
   Memcheck:Leak
   fun:malloc_zone_malloc
   fun:recursive_mutex_init
   fun:_objc_init
   fun:libSystem_initializer
   fun:_ZN16ImageLoaderMachO18doModInitFunctionsERKN11ImageLoader11LinkContextE
   fun:_ZN16ImageLoaderMachO16doInitializationERKN11ImageLoader11LinkContextE
   fun:_ZN11ImageLoader23recursiveInitializationERKNS_11LinkContextEjRNS_21InitializerTimingListE
   fun:_ZN11ImageLoader23recursiveInitializationERKNS_11LinkContextEjRNS_21InitializerTimingListE
   fun:_ZN11ImageLoader15runInitializersERKNS_11LinkContextERNS_21InitializerTimingListE
   fun:_ZN4dyld24initializeMainExecutableEv
   fun:_ZN4dyld5_mainEPK12macho_headermiPPKcS5_S5_Pm
   fun:_ZN13dyldbootstrap5startEPK12macho_headeriPPKclS2_Pm
}